; Function Attrs: mustprogress nofree norecurse nosync nounwind willreturn memory(argmem: read) uwtable
define ptr @dt_database_get(ptr noundef readonly %0) local_unnamed_addr #11 {
  %.not = icmp eq ptr %0, null
  br i1 %.not, label %5, label %2

2:                                                ; preds = %1
  %3 = getelementptr inbounds nuw i8, ptr %0, i64 40
  %4 = load ptr, ptr %3, align 8, !tbaa !6
  br label %5

5:                                                ; preds = %1, %2
  %6 = phi ptr [ %4, %2 ], [ null, %1 ]
  ret ptr %6
}